; ModuleID = 'source-C-CXX/32/477.c'
source_filename = "source-C-CXX/32/477.c"
target datalayout = "e-m:e-p270:32:32-p271:32:32-p272:64:64-i64:64-f80:128-n8:16:32:64-S128"
target triple = "x86_64-pc-linux-gnu"

; Function Attrs: nounwind sspstrong uwtable
define dso_local i32 @main() local_unnamed_addr #0 {
  %1 = alloca [100 x i8], align 16
  %2 = alloca [300 x i8], align 16
  %3 = alloca [300 x i8], align 16
  %4 = getelementptr inbounds [100 x i8], [100 x i8]* %1, i64 0, i64 0
  call void @llvm.lifetime.start.p0i8(i64 100, i8* nonnull %4) #6
  %5 = getelementptr inbounds [300 x i8], [300 x i8]* %2, i64 0, i64 0
  call void @llvm.lifetime.start.p0i8(i64 300, i8* nonnull %5) #6
  %6 = getelementptr inbounds [300 x i8], [300 x i8]* %3, i64 0, i64 0
  call void @llvm.lifetime.start.p0i8(i64 300, i8* nonnull %6) #6
  %7 = call i32 (i8*, ...) bitcast (i32 (...)* @gets to i32 (i8*, ...)*)(i8* nonnull %4) #6
  %8 = call i64 @strtol(i8* nocapture nonnull %4, i8** null, i32 10) #6
  %9 = trunc i64 %8 to i32
  %10 = icmp sgt i32 %9, 0
  br i1 %10, label %11, label %39

11:                                               ; preds = %0, %32
  %12 = phi i32 [ %37, %32 ], [ 0, %0 ]
  %13 = call i32 (i8*, ...) bitcast (i32 (...)* @gets to i32 (i8*, ...)*)(i8* nonnull %5) #6
  %14 = call i64 @strlen(i8* noundef nonnull %5) #7
  %15 = load i8, i8* %5, align 16, !tbaa !5
  %16 = icmp eq i8 %15, 0
  br i1 %16, label %32, label %17

17:                                               ; preds = %11, %27
  %18 = phi i64 [ %28, %27 ], [ 0, %11 ]
  %19 = phi i8 [ %30, %27 ], [ %15, %11 ]
  %20 = sext i8 %19 to i32
  switch i32 %20, label %27 [
    i32 65, label %24
    i32 84, label %21
    i32 67, label %22
    i32 71, label %23
  ]

21:                                               ; preds = %17
  br label %24

22:                                               ; preds = %17
  br label %24

23:                                               ; preds = %17
  br label %24

24:                                               ; preds = %17, %23, %22, %21
  %25 = phi i8 [ 65, %21 ], [ 71, %22 ], [ 67, %23 ], [ 84, %17 ]
  %26 = getelementptr inbounds [300 x i8], [300 x i8]* %3, i64 0, i64 %18
  store i8 %25, i8* %26, align 1, !tbaa !5
  br label %27

27:                                               ; preds = %24, %17
  %28 = add nuw i64 %18, 1
  %29 = getelementptr inbounds [300 x i8], [300 x i8]* %2, i64 0, i64 %28
  %30 = load i8, i8* %29, align 1, !tbaa !5
  %31 = icmp eq i8 %30, 0
  br i1 %31, label %32, label %17, !llvm.loop !8

32:                                               ; preds = %27, %11
  %33 = shl i64 %14, 32
  %34 = ashr exact i64 %33, 32
  %35 = getelementptr inbounds [300 x i8], [300 x i8]* %3, i64 0, i64 %34
  store i8 0, i8* %35, align 1, !tbaa !5
  %36 = call i32 @puts(i8* nonnull %6)
  %37 = add nuw nsw i32 %12, 1
  %38 = icmp eq i32 %37, %9
  br i1 %38, label %39, label %11, !llvm.loop !10

39:                                               ; preds = %32, %0
  call void @llvm.lifetime.end.p0i8(i64 300, i8* nonnull %6) #6
  call void @llvm.lifetime.end.p0i8(i64 300, i8* nonnull %5) #6
  call void @llvm.lifetime.end.p0i8(i64 100, i8* nonnull %4) #6
  ret i32 0
}

; Function Attrs: argmemonly mustprogress nofree nosync nounwind willreturn
declare void @llvm.lifetime.start.p0i8(i64 immarg, i8* nocapture) #1

declare i32 @gets(...) local_unnamed_addr #2

; Function Attrs: argmemonly mustprogress nofree nounwind readonly willreturn
declare i64 @strlen(i8* nocapture) local_unnamed_addr #3

; Function Attrs: nofree nounwind
declare noundef i32 @puts(i8* nocapture noundef readonly) local_unnamed_addr #4

; Function Attrs: argmemonly mustprogress nofree nosync nounwind willreturn
declare void @llvm.lifetime.end.p0i8(i64 immarg, i8* nocapture) #1

; Function Attrs: mustprogress nofree nounwind willreturn
declare i64 @strtol(i8* readonly, i8** nocapture, i32) local_unnamed_addr #5


!llvm.module.flags = !{!0, !1, !2, !3}
!llvm.ident = !{!4}

!0 = !{i32 1, !"wchar_size", i32 4}
!1 = !{i32 7, !"PIC Level", i32 2}
!2 = !{i32 7, !"PIE Level", i32 2}
!3 = !{i32 7, !"uwtable", i32 1}
!4 = !{!"clang version 13.0.0"}
!5 = !{!6, !6, i64 0}
!6 = !{!"omnipotent char", !7, i64 0}
!7 = !{!"Simple C/C++ TBAA"}
!8 = distinct !{!8, !9}
!9 = !{!"llvm.loop.mustprogress"}
!10 = distinct !{!10, !9}
